
/home/lishi/ysyx-workbench/am-kernels/tests/cpu-tests/build/hello-str-riscv64-npc.elf:     file format elf64-littleriscv


Disassembly of section .text:

0000000080000000 <_start>:
    80000000:	00000413          	li	s0,0
    80000004:	00009117          	auipc	sp,0x9
    80000008:	ffc10113          	addi	sp,sp,-4 # 80009000 <_end>
    8000000c:	0f0000ef          	jal	ra,800000fc <_trm_init>

0000000080000010 <check>:
    80000010:	00050463          	beqz	a0,80000018 <check+0x8>
    80000014:	00008067          	ret
    80000018:	ff010113          	addi	sp,sp,-16
    8000001c:	00100513          	li	a0,1
    80000020:	00113423          	sd	ra,8(sp)
    80000024:	0cc000ef          	jal	ra,800000f0 <halt>

0000000080000028 <main>:
    80000028:	ff010113          	addi	sp,sp,-16
    8000002c:	00001617          	auipc	a2,0x1
    80000030:	b0460613          	addi	a2,a2,-1276 # 80000b30 <_etext>
    80000034:	00001597          	auipc	a1,0x1
    80000038:	b0c58593          	addi	a1,a1,-1268 # 80000b40 <_etext+0x10>
    8000003c:	00001517          	auipc	a0,0x1
    80000040:	e3c50513          	addi	a0,a0,-452 # 80000e78 <buf>
    80000044:	00113423          	sd	ra,8(sp)
    80000048:	2ad000ef          	jal	ra,80000af4 <sprintf>
    8000004c:	00001597          	auipc	a1,0x1
    80000050:	ae458593          	addi	a1,a1,-1308 # 80000b30 <_etext>
    80000054:	00001517          	auipc	a0,0x1
    80000058:	e2450513          	addi	a0,a0,-476 # 80000e78 <buf>
    8000005c:	0f4000ef          	jal	ra,80000150 <strcmp>
    80000060:	00153513          	seqz	a0,a0
    80000064:	fadff0ef          	jal	ra,80000010 <check>
    80000068:	00200713          	li	a4,2
    8000006c:	00100693          	li	a3,1
    80000070:	00100613          	li	a2,1
    80000074:	00001597          	auipc	a1,0x1
    80000078:	ad458593          	addi	a1,a1,-1324 # 80000b48 <_etext+0x18>
    8000007c:	00001517          	auipc	a0,0x1
    80000080:	dfc50513          	addi	a0,a0,-516 # 80000e78 <buf>
    80000084:	271000ef          	jal	ra,80000af4 <sprintf>
    80000088:	00001597          	auipc	a1,0x1
    8000008c:	ad058593          	addi	a1,a1,-1328 # 80000b58 <_etext+0x28>
    80000090:	00001517          	auipc	a0,0x1
    80000094:	de850513          	addi	a0,a0,-536 # 80000e78 <buf>
    80000098:	0b8000ef          	jal	ra,80000150 <strcmp>
    8000009c:	00153513          	seqz	a0,a0
    800000a0:	f71ff0ef          	jal	ra,80000010 <check>
    800000a4:	00c00713          	li	a4,12
    800000a8:	00a00693          	li	a3,10
    800000ac:	00200613          	li	a2,2
    800000b0:	00001597          	auipc	a1,0x1
    800000b4:	a9858593          	addi	a1,a1,-1384 # 80000b48 <_etext+0x18>
    800000b8:	00001517          	auipc	a0,0x1
    800000bc:	dc050513          	addi	a0,a0,-576 # 80000e78 <buf>
    800000c0:	235000ef          	jal	ra,80000af4 <sprintf>
    800000c4:	00001597          	auipc	a1,0x1
    800000c8:	aa458593          	addi	a1,a1,-1372 # 80000b68 <_etext+0x38>
    800000cc:	00001517          	auipc	a0,0x1
    800000d0:	dac50513          	addi	a0,a0,-596 # 80000e78 <buf>
    800000d4:	07c000ef          	jal	ra,80000150 <strcmp>
    800000d8:	00153513          	seqz	a0,a0
    800000dc:	f35ff0ef          	jal	ra,80000010 <check>
    800000e0:	00813083          	ld	ra,8(sp)
    800000e4:	00000513          	li	a0,0
    800000e8:	01010113          	addi	sp,sp,16
    800000ec:	00008067          	ret

00000000800000f0 <halt>:
    800000f0:	00050513          	mv	a0,a0
    800000f4:	00100073          	ebreak
    800000f8:	0000006f          	j	800000f8 <halt+0x8>

00000000800000fc <_trm_init>:
    800000fc:	ff010113          	addi	sp,sp,-16
    80000100:	00001517          	auipc	a0,0x1
    80000104:	d7050513          	addi	a0,a0,-656 # 80000e70 <mainargs>
    80000108:	00113423          	sd	ra,8(sp)
    8000010c:	f1dff0ef          	jal	ra,80000028 <main>
    80000110:	00050513          	mv	a0,a0
    80000114:	00100073          	ebreak
    80000118:	0000006f          	j	80000118 <_trm_init+0x1c>

000000008000011c <strnlen>:
    8000011c:	00050613          	mv	a2,a0
    80000120:	00b606b3          	add	a3,a2,a1
    80000124:	00058513          	mv	a0,a1
    80000128:	00060793          	mv	a5,a2
    8000012c:	00059863          	bnez	a1,8000013c <strnlen+0x20>
    80000130:	01c0006f          	j	8000014c <strnlen+0x30>
    80000134:	00178793          	addi	a5,a5,1
    80000138:	00f68863          	beq	a3,a5,80000148 <strnlen+0x2c>
    8000013c:	0007c703          	lbu	a4,0(a5)
    80000140:	fe071ae3          	bnez	a4,80000134 <strnlen+0x18>
    80000144:	40c78533          	sub	a0,a5,a2
    80000148:	00008067          	ret
    8000014c:	00008067          	ret

0000000080000150 <strcmp>:
    80000150:	00050793          	mv	a5,a0
    80000154:	00054503          	lbu	a0,0(a0)
    80000158:	0005c703          	lbu	a4,0(a1)
    8000015c:	00051c63          	bnez	a0,80000174 <strcmp+0x24>
    80000160:	0280006f          	j	80000188 <strcmp+0x38>
    80000164:	02051063          	bnez	a0,80000184 <strcmp+0x34>
    80000168:	0007c503          	lbu	a0,0(a5)
    8000016c:	0005c703          	lbu	a4,0(a1)
    80000170:	00050c63          	beqz	a0,80000188 <strcmp+0x38>
    80000174:	00178793          	addi	a5,a5,1
    80000178:	00158593          	addi	a1,a1,1
    8000017c:	40e5053b          	subw	a0,a0,a4
    80000180:	fe0712e3          	bnez	a4,80000164 <strcmp+0x14>
    80000184:	00008067          	ret
    80000188:	40e0053b          	negw	a0,a4
    8000018c:	00008067          	ret

0000000080000190 <number>:
    80000190:	f9010113          	addi	sp,sp,-112
    80000194:	0107f813          	andi	a6,a5,16
    80000198:	06813423          	sd	s0,104(sp)
    8000019c:	06913023          	sd	s1,96(sp)
    800001a0:	05213c23          	sd	s2,88(sp)
    800001a4:	0207ff93          	andi	t6,a5,32
    800001a8:	0008039b          	sext.w	t2,a6
    800001ac:	1e080863          	beqz	a6,8000039c <number+0x20c>
    800001b0:	ffe7f793          	andi	a5,a5,-2
    800001b4:	00038913          	mv	s2,t2
    800001b8:	0407ff13          	andi	t5,a5,64
    800001bc:	0027f813          	andi	a6,a5,2
    800001c0:	02000293          	li	t0,32
    800001c4:	000f0f1b          	sext.w	t5,t5
    800001c8:	1e080a63          	beqz	a6,800003bc <number+0x22c>
    800001cc:	1e05cc63          	bltz	a1,800003c4 <number+0x234>
    800001d0:	0047f813          	andi	a6,a5,4
    800001d4:	24081463          	bnez	a6,8000041c <number+0x28c>
    800001d8:	0087f793          	andi	a5,a5,8
    800001dc:	00000413          	li	s0,0
    800001e0:	00078663          	beqz	a5,800001ec <number+0x5c>
    800001e4:	fff6869b          	addiw	a3,a3,-1
    800001e8:	02000413          	li	s0,32
    800001ec:	000f0a63          	beqz	t5,80000200 <number+0x70>
    800001f0:	01000793          	li	a5,16
    800001f4:	24f60a63          	beq	a2,a5,80000448 <number+0x2b8>
    800001f8:	00800793          	li	a5,8
    800001fc:	22f60663          	beq	a2,a5,80000428 <number+0x298>
    80000200:	1c059a63          	bnez	a1,800003d4 <number+0x244>
    80000204:	03000793          	li	a5,48
    80000208:	00f10423          	sb	a5,8(sp)
    8000020c:	03000813          	li	a6,48
    80000210:	00000313          	li	t1,0
    80000214:	00100893          	li	a7,1
    80000218:	00810793          	addi	a5,sp,8
    8000021c:	00088593          	mv	a1,a7
    80000220:	00e8d463          	bge	a7,a4,80000228 <number+0x98>
    80000224:	00070593          	mv	a1,a4
    80000228:	40b68ebb          	subw	t4,a3,a1
    8000022c:	fffe8e1b          	addiw	t3,t4,-1
    80000230:	0005871b          	sext.w	a4,a1
    80000234:	000e8693          	mv	a3,t4
    80000238:	000e059b          	sext.w	a1,t3
    8000023c:	02091e63          	bnez	s2,80000278 <number+0xe8>
    80000240:	23d05463          	blez	t4,80000468 <number+0x2d8>
    80000244:	020e1e13          	slli	t3,t3,0x20
    80000248:	020e5e13          	srli	t3,t3,0x20
    8000024c:	001e0593          	addi	a1,t3,1
    80000250:	00b505b3          	add	a1,a0,a1
    80000254:	00050693          	mv	a3,a0
    80000258:	02000e93          	li	t4,32
    8000025c:	00168693          	addi	a3,a3,1
    80000260:	ffd68fa3          	sb	t4,-1(a3)
    80000264:	feb69ce3          	bne	a3,a1,8000025c <number+0xcc>
    80000268:	001e0e13          	addi	t3,t3,1
    8000026c:	01c50533          	add	a0,a0,t3
    80000270:	ffe00593          	li	a1,-2
    80000274:	fff00e93          	li	t4,-1
    80000278:	00040663          	beqz	s0,80000284 <number+0xf4>
    8000027c:	00850023          	sb	s0,0(a0)
    80000280:	00150513          	addi	a0,a0,1
    80000284:	000f0a63          	beqz	t5,80000298 <number+0x108>
    80000288:	00800693          	li	a3,8
    8000028c:	1cd60263          	beq	a2,a3,80000450 <number+0x2c0>
    80000290:	01000693          	li	a3,16
    80000294:	18d60e63          	beq	a2,a3,80000430 <number+0x2a0>
    80000298:	04039663          	bnez	t2,800002e4 <number+0x154>
    8000029c:	00050613          	mv	a2,a0
    800002a0:	00100e13          	li	t3,1
    800002a4:	1dd05863          	blez	t4,80000474 <number+0x2e4>
    800002a8:	00160613          	addi	a2,a2,1
    800002ac:	40ce06bb          	subw	a3,t3,a2
    800002b0:	00b686bb          	addw	a3,a3,a1
    800002b4:	00a686bb          	addw	a3,a3,a0
    800002b8:	fe560fa3          	sb	t0,-1(a2)
    800002bc:	fed046e3          	bgtz	a3,800002a8 <number+0x118>
    800002c0:	fff5c693          	not	a3,a1
    800002c4:	43f6d693          	srai	a3,a3,0x3f
    800002c8:	00d5f6b3          	and	a3,a1,a3
    800002cc:	0006861b          	sext.w	a2,a3
    800002d0:	fff5859b          	addiw	a1,a1,-1
    800002d4:	40d58ebb          	subw	t4,a1,a3
    800002d8:	00160693          	addi	a3,a2,1
    800002dc:	00d50533          	add	a0,a0,a3
    800002e0:	fffe859b          	addiw	a1,t4,-1
    800002e4:	16e8de63          	bge	a7,a4,80000460 <number+0x2d0>
    800002e8:	4117073b          	subw	a4,a4,a7
    800002ec:	fff7071b          	addiw	a4,a4,-1
    800002f0:	02071713          	slli	a4,a4,0x20
    800002f4:	02075713          	srli	a4,a4,0x20
    800002f8:	00170713          	addi	a4,a4,1
    800002fc:	00e50733          	add	a4,a0,a4
    80000300:	03000693          	li	a3,48
    80000304:	00150513          	addi	a0,a0,1
    80000308:	fed50fa3          	sb	a3,-1(a0)
    8000030c:	fea71ce3          	bne	a4,a0,80000304 <number+0x174>
    80000310:	00678633          	add	a2,a5,t1
    80000314:	00070693          	mv	a3,a4
    80000318:	00100513          	li	a0,1
    8000031c:	0080006f          	j	80000324 <number+0x194>
    80000320:	00064803          	lbu	a6,0(a2)
    80000324:	00168693          	addi	a3,a3,1
    80000328:	40d507bb          	subw	a5,a0,a3
    8000032c:	006787bb          	addw	a5,a5,t1
    80000330:	00e787bb          	addw	a5,a5,a4
    80000334:	ff068fa3          	sb	a6,-1(a3)
    80000338:	fff60613          	addi	a2,a2,-1
    8000033c:	fef042e3          	bgtz	a5,80000320 <number+0x190>
    80000340:	00130513          	addi	a0,t1,1
    80000344:	00a70533          	add	a0,a4,a0
    80000348:	05d05063          	blez	t4,80000388 <number+0x1f8>
    8000034c:	00050713          	mv	a4,a0
    80000350:	02000613          	li	a2,32
    80000354:	00100693          	li	a3,1
    80000358:	00170713          	addi	a4,a4,1
    8000035c:	40e687bb          	subw	a5,a3,a4
    80000360:	00b787bb          	addw	a5,a5,a1
    80000364:	00a787bb          	addw	a5,a5,a0
    80000368:	fec70fa3          	sb	a2,-1(a4)
    8000036c:	fef046e3          	bgtz	a5,80000358 <number+0x1c8>
    80000370:	fff5c793          	not	a5,a1
    80000374:	43f7d793          	srai	a5,a5,0x3f
    80000378:	00f5f5b3          	and	a1,a1,a5
    8000037c:	0005859b          	sext.w	a1,a1
    80000380:	00158593          	addi	a1,a1,1
    80000384:	00b50533          	add	a0,a0,a1
    80000388:	06813403          	ld	s0,104(sp)
    8000038c:	06013483          	ld	s1,96(sp)
    80000390:	05813903          	ld	s2,88(sp)
    80000394:	07010113          	addi	sp,sp,112
    80000398:	00008067          	ret
    8000039c:	0017f813          	andi	a6,a5,1
    800003a0:	0117f913          	andi	s2,a5,17
    800003a4:	03000293          	li	t0,48
    800003a8:	e00808e3          	beqz	a6,800001b8 <number+0x28>
    800003ac:	0407ff13          	andi	t5,a5,64
    800003b0:	0027f813          	andi	a6,a5,2
    800003b4:	000f0f1b          	sext.w	t5,t5
    800003b8:	e0081ae3          	bnez	a6,800001cc <number+0x3c>
    800003bc:	00000413          	li	s0,0
    800003c0:	e2dff06f          	j	800001ec <number+0x5c>
    800003c4:	40b005b3          	neg	a1,a1
    800003c8:	fff6869b          	addiw	a3,a3,-1
    800003cc:	02d00413          	li	s0,45
    800003d0:	e20f10e3          	bnez	t5,800001f0 <number+0x60>
    800003d4:	00810793          	addi	a5,sp,8
    800003d8:	00078e13          	mv	t3,a5
    800003dc:	00000893          	li	a7,0
    800003e0:	00001497          	auipc	s1,0x1
    800003e4:	a8048493          	addi	s1,s1,-1408 # 80000e60 <digits.1494>
    800003e8:	02c5f833          	remu	a6,a1,a2
    800003ec:	001e0e13          	addi	t3,t3,1
    800003f0:	00058e93          	mv	t4,a1
    800003f4:	00088313          	mv	t1,a7
    800003f8:	0018889b          	addiw	a7,a7,1
    800003fc:	0008081b          	sext.w	a6,a6
    80000400:	01048833          	add	a6,s1,a6
    80000404:	00084803          	lbu	a6,0(a6)
    80000408:	02c5d5b3          	divu	a1,a1,a2
    8000040c:	010fe833          	or	a6,t6,a6
    80000410:	ff0e0fa3          	sb	a6,-1(t3)
    80000414:	fccefae3          	bgeu	t4,a2,800003e8 <number+0x258>
    80000418:	e05ff06f          	j	8000021c <number+0x8c>
    8000041c:	fff6869b          	addiw	a3,a3,-1
    80000420:	02b00413          	li	s0,43
    80000424:	dc9ff06f          	j	800001ec <number+0x5c>
    80000428:	fff6869b          	addiw	a3,a3,-1
    8000042c:	dd5ff06f          	j	80000200 <number+0x70>
    80000430:	058fef93          	ori	t6,t6,88
    80000434:	03000693          	li	a3,48
    80000438:	00d50023          	sb	a3,0(a0)
    8000043c:	01f500a3          	sb	t6,1(a0)
    80000440:	00250513          	addi	a0,a0,2
    80000444:	e55ff06f          	j	80000298 <number+0x108>
    80000448:	ffe6869b          	addiw	a3,a3,-2
    8000044c:	db5ff06f          	j	80000200 <number+0x70>
    80000450:	03000693          	li	a3,48
    80000454:	00d50023          	sb	a3,0(a0)
    80000458:	00150513          	addi	a0,a0,1
    8000045c:	e3dff06f          	j	80000298 <number+0x108>
    80000460:	00050713          	mv	a4,a0
    80000464:	eadff06f          	j	80000310 <number+0x180>
    80000468:	00058e93          	mv	t4,a1
    8000046c:	ffe6859b          	addiw	a1,a3,-2
    80000470:	e09ff06f          	j	80000278 <number+0xe8>
    80000474:	00058e93          	mv	t4,a1
    80000478:	fff5859b          	addiw	a1,a1,-1
    8000047c:	e69ff06f          	j	800002e4 <number+0x154>

0000000080000480 <vsprintf>:
    80000480:	f9010113          	addi	sp,sp,-112
    80000484:	03813023          	sd	s8,32(sp)
    80000488:	06113423          	sd	ra,104(sp)
    8000048c:	06813023          	sd	s0,96(sp)
    80000490:	04913c23          	sd	s1,88(sp)
    80000494:	05213823          	sd	s2,80(sp)
    80000498:	05313423          	sd	s3,72(sp)
    8000049c:	05413023          	sd	s4,64(sp)
    800004a0:	03513c23          	sd	s5,56(sp)
    800004a4:	03613823          	sd	s6,48(sp)
    800004a8:	03713423          	sd	s7,40(sp)
    800004ac:	01913c23          	sd	s9,24(sp)
    800004b0:	01a13823          	sd	s10,16(sp)
    800004b4:	0005c783          	lbu	a5,0(a1)
    800004b8:	00050c13          	mv	s8,a0
    800004bc:	5c078263          	beqz	a5,80000a80 <vsprintf+0x600>
    800004c0:	00060a93          	mv	s5,a2
    800004c4:	00050c93          	mv	s9,a0
    800004c8:	02500b93          	li	s7,37
    800004cc:	01000a13          	li	s4,16
    800004d0:	00000997          	auipc	s3,0x0
    800004d4:	6a898993          	addi	s3,s3,1704 # 80000b78 <_etext+0x48>
    800004d8:	00900b13          	li	s6,9
    800004dc:	00001417          	auipc	s0,0x1
    800004e0:	83040413          	addi	s0,s0,-2000 # 80000d0c <_etext+0x1dc>
    800004e4:	00000917          	auipc	s2,0x0
    800004e8:	6d890913          	addi	s2,s2,1752 # 80000bbc <_etext+0x8c>
    800004ec:	05778c63          	beq	a5,s7,80000544 <vsprintf+0xc4>
    800004f0:	00fc8023          	sb	a5,0(s9)
    800004f4:	0015c783          	lbu	a5,1(a1)
    800004f8:	001c8c93          	addi	s9,s9,1
    800004fc:	00158593          	addi	a1,a1,1
    80000500:	fe0796e3          	bnez	a5,800004ec <vsprintf+0x6c>
    80000504:	418c853b          	subw	a0,s9,s8
    80000508:	000c8023          	sb	zero,0(s9)
    8000050c:	06813083          	ld	ra,104(sp)
    80000510:	06013403          	ld	s0,96(sp)
    80000514:	05813483          	ld	s1,88(sp)
    80000518:	05013903          	ld	s2,80(sp)
    8000051c:	04813983          	ld	s3,72(sp)
    80000520:	04013a03          	ld	s4,64(sp)
    80000524:	03813a83          	ld	s5,56(sp)
    80000528:	03013b03          	ld	s6,48(sp)
    8000052c:	02813b83          	ld	s7,40(sp)
    80000530:	02013c03          	ld	s8,32(sp)
    80000534:	01813c83          	ld	s9,24(sp)
    80000538:	01013d03          	ld	s10,16(sp)
    8000053c:	07010113          	addi	sp,sp,112
    80000540:	00008067          	ret
    80000544:	00000793          	li	a5,0
    80000548:	0015c803          	lbu	a6,1(a1)
    8000054c:	00158493          	addi	s1,a1,1
    80000550:	fe08071b          	addiw	a4,a6,-32
    80000554:	0ff77713          	andi	a4,a4,255
    80000558:	00ea6c63          	bltu	s4,a4,80000570 <vsprintf+0xf0>
    8000055c:	00271713          	slli	a4,a4,0x2
    80000560:	01370733          	add	a4,a4,s3
    80000564:	00072703          	lw	a4,0(a4)
    80000568:	01370733          	add	a4,a4,s3
    8000056c:	00070067          	jr	a4
    80000570:	fd08071b          	addiw	a4,a6,-48
    80000574:	14eb7863          	bgeu	s6,a4,800006c4 <vsprintf+0x244>
    80000578:	02a00713          	li	a4,42
    8000057c:	fff00693          	li	a3,-1
    80000580:	16e80863          	beq	a6,a4,800006f0 <vsprintf+0x270>
    80000584:	02e00613          	li	a2,46
    80000588:	fff00713          	li	a4,-1
    8000058c:	10c80a63          	beq	a6,a2,800006a0 <vsprintf+0x220>
    80000590:	06800613          	li	a2,104
    80000594:	0ac80863          	beq	a6,a2,80000644 <vsprintf+0x1c4>
    80000598:	0df87613          	andi	a2,a6,223
    8000059c:	04c00593          	li	a1,76
    800005a0:	0ab60263          	beq	a2,a1,80000644 <vsprintf+0x1c4>
    800005a4:	fdb8081b          	addiw	a6,a6,-37
    800005a8:	0ff87813          	andi	a6,a6,255
    800005ac:	05300613          	li	a2,83
    800005b0:	0d066463          	bltu	a2,a6,80000678 <vsprintf+0x1f8>
    800005b4:	00281813          	slli	a6,a6,0x2
    800005b8:	01280833          	add	a6,a6,s2
    800005bc:	00082583          	lw	a1,0(a6)
    800005c0:	012585b3          	add	a1,a1,s2
    800005c4:	00058067          	jr	a1
    800005c8:	008a8813          	addi	a6,s5,8
    800005cc:	00a00613          	li	a2,10
    800005d0:	0027f513          	andi	a0,a5,2
    800005d4:	000aa583          	lw	a1,0(s5)
    800005d8:	0005051b          	sext.w	a0,a0
    800005dc:	00080a93          	mv	s5,a6
    800005e0:	00048d13          	mv	s10,s1
    800005e4:	32050c63          	beqz	a0,8000091c <vsprintf+0x49c>
    800005e8:	0005859b          	sext.w	a1,a1
    800005ec:	000c8513          	mv	a0,s9
    800005f0:	ba1ff0ef          	jal	ra,80000190 <number>
    800005f4:	001d4783          	lbu	a5,1(s10)
    800005f8:	00050c93          	mv	s9,a0
    800005fc:	001d0593          	addi	a1,s10,1
    80000600:	ee0796e3          	bnez	a5,800004ec <vsprintf+0x6c>
    80000604:	f01ff06f          	j	80000504 <vsprintf+0x84>
    80000608:	0017e793          	ori	a5,a5,1
    8000060c:	00048593          	mv	a1,s1
    80000610:	f39ff06f          	j	80000548 <vsprintf+0xc8>
    80000614:	0107e793          	ori	a5,a5,16
    80000618:	00048593          	mv	a1,s1
    8000061c:	f2dff06f          	j	80000548 <vsprintf+0xc8>
    80000620:	0047e793          	ori	a5,a5,4
    80000624:	00048593          	mv	a1,s1
    80000628:	f21ff06f          	j	80000548 <vsprintf+0xc8>
    8000062c:	0407e793          	ori	a5,a5,64
    80000630:	00048593          	mv	a1,s1
    80000634:	f15ff06f          	j	80000548 <vsprintf+0xc8>
    80000638:	0087e793          	ori	a5,a5,8
    8000063c:	00048593          	mv	a1,s1
    80000640:	f09ff06f          	j	80000548 <vsprintf+0xc8>
    80000644:	0014c603          	lbu	a2,1(s1)
    80000648:	05300593          	li	a1,83
    8000064c:	0008081b          	sext.w	a6,a6
    80000650:	fdb6061b          	addiw	a2,a2,-37
    80000654:	0ff67613          	andi	a2,a2,255
    80000658:	00148d13          	addi	s10,s1,1
    8000065c:	00c5ec63          	bltu	a1,a2,80000674 <vsprintf+0x1f4>
    80000660:	00261613          	slli	a2,a2,0x2
    80000664:	00860633          	add	a2,a2,s0
    80000668:	00062603          	lw	a2,0(a2)
    8000066c:	00860633          	add	a2,a2,s0
    80000670:	00060067          	jr	a2
    80000674:	000d0493          	mv	s1,s10
    80000678:	02500793          	li	a5,37
    8000067c:	00fc8023          	sb	a5,0(s9)
    80000680:	0004c783          	lbu	a5,0(s1)
    80000684:	32078c63          	beqz	a5,800009bc <vsprintf+0x53c>
    80000688:	00fc80a3          	sb	a5,1(s9)
    8000068c:	0014c783          	lbu	a5,1(s1)
    80000690:	00148593          	addi	a1,s1,1
    80000694:	002c8c93          	addi	s9,s9,2
    80000698:	e4079ae3          	bnez	a5,800004ec <vsprintf+0x6c>
    8000069c:	e69ff06f          	j	80000504 <vsprintf+0x84>
    800006a0:	0014c803          	lbu	a6,1(s1)
    800006a4:	00148613          	addi	a2,s1,1
    800006a8:	fd08071b          	addiw	a4,a6,-48
    800006ac:	26eb7e63          	bgeu	s6,a4,80000928 <vsprintf+0x4a8>
    800006b0:	02a00713          	li	a4,42
    800006b4:	2ce80c63          	beq	a6,a4,8000098c <vsprintf+0x50c>
    800006b8:	00060493          	mv	s1,a2
    800006bc:	00000713          	li	a4,0
    800006c0:	ed1ff06f          	j	80000590 <vsprintf+0x110>
    800006c4:	00000693          	li	a3,0
    800006c8:	0026971b          	slliw	a4,a3,0x2
    800006cc:	00d706bb          	addw	a3,a4,a3
    800006d0:	00148493          	addi	s1,s1,1
    800006d4:	0016969b          	slliw	a3,a3,0x1
    800006d8:	010686bb          	addw	a3,a3,a6
    800006dc:	0004c803          	lbu	a6,0(s1)
    800006e0:	fd06869b          	addiw	a3,a3,-48
    800006e4:	fd08071b          	addiw	a4,a6,-48
    800006e8:	feeb70e3          	bgeu	s6,a4,800006c8 <vsprintf+0x248>
    800006ec:	e99ff06f          	j	80000584 <vsprintf+0x104>
    800006f0:	000aa683          	lw	a3,0(s5)
    800006f4:	0025c803          	lbu	a6,2(a1)
    800006f8:	00258493          	addi	s1,a1,2
    800006fc:	008a8a93          	addi	s5,s5,8
    80000700:	e806d2e3          	bgez	a3,80000584 <vsprintf+0x104>
    80000704:	40d006bb          	negw	a3,a3
    80000708:	0107e793          	ori	a5,a5,16
    8000070c:	e79ff06f          	j	80000584 <vsprintf+0x104>
    80000710:	0207e793          	ori	a5,a5,32
    80000714:	008a8813          	addi	a6,s5,8
    80000718:	01000613          	li	a2,16
    8000071c:	eb5ff06f          	j	800005d0 <vsprintf+0x150>
    80000720:	000d0493          	mv	s1,s10
    80000724:	000abd03          	ld	s10,0(s5)
    80000728:	00070593          	mv	a1,a4
    8000072c:	00d13423          	sd	a3,8(sp)
    80000730:	000d0513          	mv	a0,s10
    80000734:	00f13023          	sd	a5,0(sp)
    80000738:	9e5ff0ef          	jal	ra,8000011c <strnlen>
    8000073c:	00813683          	ld	a3,8(sp)
    80000740:	00013783          	ld	a5,0(sp)
    80000744:	008a8a93          	addi	s5,s5,8
    80000748:	fff68e9b          	addiw	t4,a3,-1
    8000074c:	0107f793          	andi	a5,a5,16
    80000750:	000e8613          	mv	a2,t4
    80000754:	0005081b          	sext.w	a6,a0
    80000758:	2a078e63          	beqz	a5,80000a14 <vsprintf+0x594>
    8000075c:	33005863          	blez	a6,80000a8c <vsprintf+0x60c>
    80000760:	fff5061b          	addiw	a2,a0,-1
    80000764:	02061613          	slli	a2,a2,0x20
    80000768:	02065613          	srli	a2,a2,0x20
    8000076c:	00160613          	addi	a2,a2,1
    80000770:	00cc8633          	add	a2,s9,a2
    80000774:	000d4783          	lbu	a5,0(s10)
    80000778:	001c8c93          	addi	s9,s9,1
    8000077c:	001d0d13          	addi	s10,s10,1
    80000780:	fefc8fa3          	sb	a5,-1(s9)
    80000784:	fecc98e3          	bne	s9,a2,80000774 <vsprintf+0x2f4>
    80000788:	00148593          	addi	a1,s1,1
    8000078c:	00060713          	mv	a4,a2
    80000790:	000e889b          	sext.w	a7,t4
    80000794:	02000e13          	li	t3,32
    80000798:	00100313          	li	t1,1
    8000079c:	34d85063          	bge	a6,a3,80000adc <vsprintf+0x65c>
    800007a0:	00170713          	addi	a4,a4,1
    800007a4:	40e307bb          	subw	a5,t1,a4
    800007a8:	011787bb          	addw	a5,a5,a7
    800007ac:	00c787bb          	addw	a5,a5,a2
    800007b0:	ffc70fa3          	sb	t3,-1(a4)
    800007b4:	fef846e3          	blt	a6,a5,800007a0 <vsprintf+0x320>
    800007b8:	00100c93          	li	s9,1
    800007bc:	010eca63          	blt	t4,a6,800007d0 <vsprintf+0x350>
    800007c0:	40a887bb          	subw	a5,a7,a0
    800007c4:	02079793          	slli	a5,a5,0x20
    800007c8:	0207d793          	srli	a5,a5,0x20
    800007cc:	00178c93          	addi	s9,a5,1
    800007d0:	0014c783          	lbu	a5,1(s1)
    800007d4:	01960cb3          	add	s9,a2,s9
    800007d8:	d0079ae3          	bnez	a5,800004ec <vsprintf+0x6c>
    800007dc:	d29ff06f          	j	80000504 <vsprintf+0x84>
    800007e0:	000d0493          	mv	s1,s10
    800007e4:	fff00613          	li	a2,-1
    800007e8:	1cc68e63          	beq	a3,a2,800009c4 <vsprintf+0x544>
    800007ec:	000ab583          	ld	a1,0(s5)
    800007f0:	000c8513          	mv	a0,s9
    800007f4:	01000613          	li	a2,16
    800007f8:	999ff0ef          	jal	ra,80000190 <number>
    800007fc:	0014c783          	lbu	a5,1(s1)
    80000800:	008a8a93          	addi	s5,s5,8
    80000804:	00050c93          	mv	s9,a0
    80000808:	00148593          	addi	a1,s1,1
    8000080c:	ce0790e3          	bnez	a5,800004ec <vsprintf+0x6c>
    80000810:	cf5ff06f          	j	80000504 <vsprintf+0x84>
    80000814:	008a8813          	addi	a6,s5,8
    80000818:	00800613          	li	a2,8
    8000081c:	db5ff06f          	j	800005d0 <vsprintf+0x150>
    80000820:	0027e793          	ori	a5,a5,2
    80000824:	008a8813          	addi	a6,s5,8
    80000828:	00a00613          	li	a2,10
    8000082c:	da5ff06f          	j	800005d0 <vsprintf+0x150>
    80000830:	000d0493          	mv	s1,s10
    80000834:	0107f793          	andi	a5,a5,16
    80000838:	fff6871b          	addiw	a4,a3,-1
    8000083c:	18078a63          	beqz	a5,800009d0 <vsprintf+0x550>
    80000840:	000aa783          	lw	a5,0(s5)
    80000844:	001c8513          	addi	a0,s9,1
    80000848:	008a8a93          	addi	s5,s5,8
    8000084c:	00fc8023          	sb	a5,0(s9)
    80000850:	00148593          	addi	a1,s1,1
    80000854:	26e05c63          	blez	a4,80000acc <vsprintf+0x64c>
    80000858:	fff7071b          	addiw	a4,a4,-1
    8000085c:	02071793          	slli	a5,a4,0x20
    80000860:	0207d793          	srli	a5,a5,0x20
    80000864:	00278793          	addi	a5,a5,2
    80000868:	00fc8cb3          	add	s9,s9,a5
    8000086c:	02000693          	li	a3,32
    80000870:	00050793          	mv	a5,a0
    80000874:	00178793          	addi	a5,a5,1
    80000878:	fed78fa3          	sb	a3,-1(a5)
    8000087c:	ff979ce3          	bne	a5,s9,80000874 <vsprintf+0x3f4>
    80000880:	0014c783          	lbu	a5,1(s1)
    80000884:	00170c93          	addi	s9,a4,1
    80000888:	01950cb3          	add	s9,a0,s9
    8000088c:	c60790e3          	bnez	a5,800004ec <vsprintf+0x6c>
    80000890:	c75ff06f          	j	80000504 <vsprintf+0x84>
    80000894:	008a8813          	addi	a6,s5,8
    80000898:	01000613          	li	a2,16
    8000089c:	d35ff06f          	j	800005d0 <vsprintf+0x150>
    800008a0:	000d0493          	mv	s1,s10
    800008a4:	02500793          	li	a5,37
    800008a8:	00fc8023          	sb	a5,0(s9)
    800008ac:	0014c783          	lbu	a5,1(s1)
    800008b0:	00148593          	addi	a1,s1,1
    800008b4:	001c8c93          	addi	s9,s9,1
    800008b8:	c2079ae3          	bnez	a5,800004ec <vsprintf+0x6c>
    800008bc:	c49ff06f          	j	80000504 <vsprintf+0x84>
    800008c0:	0027e793          	ori	a5,a5,2
    800008c4:	00a00613          	li	a2,10
    800008c8:	06c00593          	li	a1,108
    800008cc:	008a8893          	addi	a7,s5,8
    800008d0:	02b81263          	bne	a6,a1,800008f4 <vsprintf+0x474>
    800008d4:	000ab583          	ld	a1,0(s5)
    800008d8:	00088a93          	mv	s5,a7
    800008dc:	d11ff06f          	j	800005ec <vsprintf+0x16c>
    800008e0:	0207e793          	ori	a5,a5,32
    800008e4:	01000613          	li	a2,16
    800008e8:	fe1ff06f          	j	800008c8 <vsprintf+0x448>
    800008ec:	00800613          	li	a2,8
    800008f0:	fd9ff06f          	j	800008c8 <vsprintf+0x448>
    800008f4:	0027f513          	andi	a0,a5,2
    800008f8:	06800313          	li	t1,104
    800008fc:	000aa583          	lw	a1,0(s5)
    80000900:	0005051b          	sext.w	a0,a0
    80000904:	1e681463          	bne	a6,t1,80000aec <vsprintf+0x66c>
    80000908:	0a050263          	beqz	a0,800009ac <vsprintf+0x52c>
    8000090c:	0105959b          	slliw	a1,a1,0x10
    80000910:	4105d59b          	sraiw	a1,a1,0x10
    80000914:	00088a93          	mv	s5,a7
    80000918:	cd5ff06f          	j	800005ec <vsprintf+0x16c>
    8000091c:	02059593          	slli	a1,a1,0x20
    80000920:	0205d593          	srli	a1,a1,0x20
    80000924:	cc9ff06f          	j	800005ec <vsprintf+0x16c>
    80000928:	00000593          	li	a1,0
    8000092c:	0025971b          	slliw	a4,a1,0x2
    80000930:	00b7073b          	addw	a4,a4,a1
    80000934:	00160613          	addi	a2,a2,1
    80000938:	0017171b          	slliw	a4,a4,0x1
    8000093c:	0107073b          	addw	a4,a4,a6
    80000940:	00064803          	lbu	a6,0(a2)
    80000944:	fd07059b          	addiw	a1,a4,-48
    80000948:	fd08071b          	addiw	a4,a6,-48
    8000094c:	feeb70e3          	bgeu	s6,a4,8000092c <vsprintf+0x4ac>
    80000950:	fff5c713          	not	a4,a1
    80000954:	43f75713          	srai	a4,a4,0x3f
    80000958:	00e5f733          	and	a4,a1,a4
    8000095c:	0007071b          	sext.w	a4,a4
    80000960:	00060493          	mv	s1,a2
    80000964:	c2dff06f          	j	80000590 <vsprintf+0x110>
    80000968:	000ab703          	ld	a4,0(s5)
    8000096c:	418c87b3          	sub	a5,s9,s8
    80000970:	008a8a93          	addi	s5,s5,8
    80000974:	00148593          	addi	a1,s1,1
    80000978:	00048d13          	mv	s10,s1
    8000097c:	00f72023          	sw	a5,0(a4)
    80000980:	001d4783          	lbu	a5,1(s10)
    80000984:	b60794e3          	bnez	a5,800004ec <vsprintf+0x6c>
    80000988:	b7dff06f          	j	80000504 <vsprintf+0x84>
    8000098c:	000aa603          	lw	a2,0(s5)
    80000990:	0024c803          	lbu	a6,2(s1)
    80000994:	008a8a93          	addi	s5,s5,8
    80000998:	fff64713          	not	a4,a2
    8000099c:	43f75713          	srai	a4,a4,0x3f
    800009a0:	00e67733          	and	a4,a2,a4
    800009a4:	00248493          	addi	s1,s1,2
    800009a8:	be9ff06f          	j	80000590 <vsprintf+0x110>
    800009ac:	03059593          	slli	a1,a1,0x30
    800009b0:	0305d593          	srli	a1,a1,0x30
    800009b4:	00088a93          	mv	s5,a7
    800009b8:	c35ff06f          	j	800005ec <vsprintf+0x16c>
    800009bc:	001c8c93          	addi	s9,s9,1
    800009c0:	b45ff06f          	j	80000504 <vsprintf+0x84>
    800009c4:	0017e793          	ori	a5,a5,1
    800009c8:	01000693          	li	a3,16
    800009cc:	e21ff06f          	j	800007ec <vsprintf+0x36c>
    800009d0:	0ee05463          	blez	a4,80000ab8 <vsprintf+0x638>
    800009d4:	ffe6869b          	addiw	a3,a3,-2
    800009d8:	02069713          	slli	a4,a3,0x20
    800009dc:	02075713          	srli	a4,a4,0x20
    800009e0:	00170713          	addi	a4,a4,1
    800009e4:	00ec8733          	add	a4,s9,a4
    800009e8:	000c8793          	mv	a5,s9
    800009ec:	02000613          	li	a2,32
    800009f0:	00178793          	addi	a5,a5,1
    800009f4:	fec78fa3          	sb	a2,-1(a5)
    800009f8:	fef71ce3          	bne	a4,a5,800009f0 <vsprintf+0x570>
    800009fc:	02069693          	slli	a3,a3,0x20
    80000a00:	0206d693          	srli	a3,a3,0x20
    80000a04:	00168793          	addi	a5,a3,1
    80000a08:	00fc8cb3          	add	s9,s9,a5
    80000a0c:	fff00713          	li	a4,-1
    80000a10:	e31ff06f          	j	80000840 <vsprintf+0x3c0>
    80000a14:	08d85863          	bge	a6,a3,80000aa4 <vsprintf+0x624>
    80000a18:	fff6879b          	addiw	a5,a3,-1
    80000a1c:	410787bb          	subw	a5,a5,a6
    80000a20:	02079793          	slli	a5,a5,0x20
    80000a24:	0207d793          	srli	a5,a5,0x20
    80000a28:	00178793          	addi	a5,a5,1
    80000a2c:	0006869b          	sext.w	a3,a3
    80000a30:	00fc87b3          	add	a5,s9,a5
    80000a34:	02000713          	li	a4,32
    80000a38:	001c8c93          	addi	s9,s9,1
    80000a3c:	feec8fa3          	sb	a4,-1(s9)
    80000a40:	fefc9ce3          	bne	s9,a5,80000a38 <vsprintf+0x5b8>
    80000a44:	40d80ebb          	subw	t4,a6,a3
    80000a48:	00ce86bb          	addw	a3,t4,a2
    80000a4c:	fff68e9b          	addiw	t4,a3,-1
    80000a50:	d10048e3          	bgtz	a6,80000760 <vsprintf+0x2e0>
    80000a54:	0380006f          	j	80000a8c <vsprintf+0x60c>
    80000a58:	06c00693          	li	a3,108
    80000a5c:	000ab703          	ld	a4,0(s5)
    80000a60:	418c87b3          	sub	a5,s9,s8
    80000a64:	008a8a93          	addi	s5,s5,8
    80000a68:	00248593          	addi	a1,s1,2
    80000a6c:	f0d818e3          	bne	a6,a3,8000097c <vsprintf+0x4fc>
    80000a70:	00f73023          	sd	a5,0(a4)
    80000a74:	0024c783          	lbu	a5,2(s1)
    80000a78:	a6079ae3          	bnez	a5,800004ec <vsprintf+0x6c>
    80000a7c:	a89ff06f          	j	80000504 <vsprintf+0x84>
    80000a80:	00050c93          	mv	s9,a0
    80000a84:	00000513          	li	a0,0
    80000a88:	a81ff06f          	j	80000508 <vsprintf+0x88>
    80000a8c:	000c8613          	mv	a2,s9
    80000a90:	cf9ff06f          	j	80000788 <vsprintf+0x308>
    80000a94:	01000613          	li	a2,16
    80000a98:	e31ff06f          	j	800008c8 <vsprintf+0x448>
    80000a9c:	00a00613          	li	a2,10
    80000aa0:	e29ff06f          	j	800008c8 <vsprintf+0x448>
    80000aa4:	ffe6879b          	addiw	a5,a3,-2
    80000aa8:	000e8693          	mv	a3,t4
    80000aac:	00078e93          	mv	t4,a5
    80000ab0:	cb0048e3          	bgtz	a6,80000760 <vsprintf+0x2e0>
    80000ab4:	fd9ff06f          	j	80000a8c <vsprintf+0x60c>
    80000ab8:	000aa783          	lw	a5,0(s5)
    80000abc:	001c8513          	addi	a0,s9,1
    80000ac0:	008a8a93          	addi	s5,s5,8
    80000ac4:	00fc8023          	sb	a5,0(s9)
    80000ac8:	00148593          	addi	a1,s1,1
    80000acc:	0014c783          	lbu	a5,1(s1)
    80000ad0:	00050c93          	mv	s9,a0
    80000ad4:	a0079ce3          	bnez	a5,800004ec <vsprintf+0x6c>
    80000ad8:	a2dff06f          	j	80000504 <vsprintf+0x84>
    80000adc:	0014c783          	lbu	a5,1(s1)
    80000ae0:	00060c93          	mv	s9,a2
    80000ae4:	a00794e3          	bnez	a5,800004ec <vsprintf+0x6c>
    80000ae8:	a1dff06f          	j	80000504 <vsprintf+0x84>
    80000aec:	00088a93          	mv	s5,a7
    80000af0:	af5ff06f          	j	800005e4 <vsprintf+0x164>

0000000080000af4 <sprintf>:
    80000af4:	fb010113          	addi	sp,sp,-80
    80000af8:	02010313          	addi	t1,sp,32
    80000afc:	02c13023          	sd	a2,32(sp)
    80000b00:	00030613          	mv	a2,t1
    80000b04:	00113c23          	sd	ra,24(sp)
    80000b08:	02d13423          	sd	a3,40(sp)
    80000b0c:	02e13823          	sd	a4,48(sp)
    80000b10:	02f13c23          	sd	a5,56(sp)
    80000b14:	05013023          	sd	a6,64(sp)
    80000b18:	05113423          	sd	a7,72(sp)
    80000b1c:	00613423          	sd	t1,8(sp)
    80000b20:	961ff0ef          	jal	ra,80000480 <vsprintf>
    80000b24:	01813083          	ld	ra,24(sp)
    80000b28:	05010113          	addi	sp,sp,80
    80000b2c:	00008067          	ret
